target datalayout = "e-m:e-p270:32:32-p271:32:32-p272:64:64-i64:64-i128:128-f80:128-n8:16:32:64-S128"
target triple = "x86_64-pc-linux-gnu"

%struct.expert_field = type { i32, i32 }

@hf_nfapi_nprb = internal global i32 0, align 4
@hf_nfapi_harq_size_2 = internal global i32 0, align 4
@hf_nfapi_starting_prb = internal global i32 0, align 4
@hf_nfapi_cdm_index = internal global i32 0, align 4
@hf_nfapi_nsrs = internal global i32 0, align 4
@ei_invalid_range = internal global %struct.expert_field zeroinitializer, align 4
@.str.2240 = private unnamed_addr constant [36 x i8] c"Invalid starting prb value [0..109]\00", align 1
@.str.2241 = private unnamed_addr constant [27 x i8] c"Invalid n prb value [0..7]\00", align 1
@.str.2242 = private unnamed_addr constant [31 x i8] c"Invalid cdm Index value [0..1]\00", align 1
@.str.2243 = private unnamed_addr constant [27 x i8] c"Invalid n srs value [0..1]\00", align 1

; Function Attrs: nounwind uwtable
define internal void @dissect_ul_config_harq_info_uci_rel13_fdd_tdd_value(ptr noundef %0, ptr noundef %1) #0 {
  %3 = alloca ptr, align 8
  %4 = alloca ptr, align 8
  %5 = alloca ptr, align 8
  %6 = alloca i32, align 4
  store ptr %0, ptr %3, align 8
  store ptr %1, ptr %4, align 8
  %7 = load ptr, ptr %3, align 8
  %8 = load i32, ptr @hf_nfapi_harq_size_2, align 4
  %9 = call ptr @ptvcursor_add(ptr noundef %7, i32 noundef %8, i32 noundef 2, i32 noundef 0)
  %10 = load ptr, ptr %3, align 8
  %11 = load i32, ptr @hf_nfapi_starting_prb, align 4
  %12 = call ptr @ptvcursor_add_ret_uint(ptr noundef %10, i32 noundef %11, i32 noundef 1, i32 noundef 0, ptr noundef %6)
  store ptr %12, ptr %5, align 8
  %13 = load i32, ptr %6, align 4
  %14 = icmp ugt i32 %13, 109
  br i1 %14, label %15, label %19

15:                                               ; preds = %2
  %16 = load ptr, ptr %4, align 8
  %17 = load ptr, ptr %5, align 8
  %18 = call ptr (ptr, ptr, ptr, ptr, ...) @expert_add_info_format(ptr noundef %16, ptr noundef %17, ptr noundef @ei_invalid_range, ptr noundef @.str.2240)
  br label %19

19:                                               ; preds = %15, %2
  %20 = load ptr, ptr %3, align 8
  %21 = load i32, ptr @hf_nfapi_nprb, align 4
  %22 = call ptr @ptvcursor_add_ret_uint(ptr noundef %20, i32 noundef %21, i32 noundef 1, i32 noundef 0, ptr noundef %6)
  store ptr %22, ptr %5, align 8
  %23 = load i32, ptr %6, align 4
  %24 = icmp ugt i32 %23, 109
  br i1 %24, label %25, label %29

25:                                               ; preds = %19
  %26 = load ptr, ptr %4, align 8
  %27 = load ptr, ptr %5, align 8
  %28 = call ptr (ptr, ptr, ptr, ptr, ...) @expert_add_info_format(ptr noundef %26, ptr noundef %27, ptr noundef @ei_invalid_range, ptr noundef @.str.2241)
  br label %29

29:                                               ; preds = %25, %19
  %30 = load ptr, ptr %3, align 8
  %31 = load i32, ptr @hf_nfapi_cdm_index, align 4
  %32 = call ptr @ptvcursor_add_ret_uint(ptr noundef %30, i32 noundef %31, i32 noundef 1, i32 noundef 0, ptr noundef %6)
  store ptr %32, ptr %5, align 8
  %33 = load i32, ptr %6, align 4
  %34 = icmp ugt i32 %33, 1
  br i1 %34, label %35, label %39

35:                                               ; preds = %29
  %36 = load ptr, ptr %4, align 8
  %37 = load ptr, ptr %5, align 8
  %38 = call ptr (ptr, ptr, ptr, ptr, ...) @expert_add_info_format(ptr noundef %36, ptr noundef %37, ptr noundef @ei_invalid_range, ptr noundef @.str.2242)
  br label %39

39:                                               ; preds = %35, %29
  %40 = load ptr, ptr %3, align 8
  %41 = load i32, ptr @hf_nfapi_nsrs, align 4
  %42 = call ptr @ptvcursor_add_ret_uint(ptr noundef %40, i32 noundef %41, i32 noundef 1, i32 noundef 0, ptr noundef %6)
  store ptr %42, ptr %5, align 8
  %43 = load i32, ptr %6, align 4
  %44 = icmp ugt i32 %43, 1
  br i1 %44, label %45, label %49

45:                                               ; preds = %39
  %46 = load ptr, ptr %4, align 8
  %47 = load ptr, ptr %5, align 8
  %48 = call ptr (ptr, ptr, ptr, ptr, ...) @expert_add_info_format(ptr noundef %46, ptr noundef %47, ptr noundef @ei_invalid_range, ptr noundef @.str.2243)
  br label %49

49:                                               ; preds = %45, %39
  ret void
}