; Function Attrs: nounwind uwtable
define internal void @dissect_ul_config_harq_info_uci_rel13_fdd_tdd_value(ptr noundef %0, ptr noundef %1) #0 {
  %3 = alloca i32, align 4
  %4 = load i32, ptr @hf_nfapi_harq_size_2, align 4
  %5 = tail call ptr @ptvcursor_add(ptr noundef %0, i32 noundef %4, i32 noundef 2, i32 noundef 0) #7
  %6 = load i32, ptr @hf_nfapi_starting_prb, align 4
  %7 = call ptr @ptvcursor_add_ret_uint(ptr noundef %0, i32 noundef %6, i32 noundef 1, i32 noundef 0, ptr noundef nonnull %3) #7
  %8 = load i32, ptr %3, align 4
  %9 = icmp ugt i32 %8, 109
  br i1 %9, label %10, label %12

10:                                               ; preds = %2
  %11 = call ptr (ptr, ptr, ptr, ptr, ...) @expert_add_info_format(ptr noundef %1, ptr noundef %7, ptr noundef nonnull @ei_invalid_range, ptr noundef nonnull @.str.2240) #7
  br label %12

12:                                               ; preds = %10, %2
  %13 = load i32, ptr @hf_nfapi_nprb, align 4
  %14 = call ptr @ptvcursor_add_ret_uint(ptr noundef %0, i32 noundef %13, i32 noundef 1, i32 noundef 0, ptr noundef nonnull %3) #7
  %15 = load i32, ptr %3, align 4
  %16 = icmp ugt i32 %15, 109
  br i1 %16, label %17, label %19

17:                                               ; preds = %12
  %18 = call ptr (ptr, ptr, ptr, ptr, ...) @expert_add_info_format(ptr noundef %1, ptr noundef %14, ptr noundef nonnull @ei_invalid_range, ptr noundef nonnull @.str.2241) #7
  br label %19

19:                                               ; preds = %17, %12
  %20 = load i32, ptr @hf_nfapi_cdm_index, align 4
  %21 = call ptr @ptvcursor_add_ret_uint(ptr noundef %0, i32 noundef %20, i32 noundef 1, i32 noundef 0, ptr noundef nonnull %3) #7
  %22 = load i32, ptr %3, align 4
  %23 = icmp ugt i32 %22, 1
  br i1 %23, label %24, label %26

24:                                               ; preds = %19
  %25 = call ptr (ptr, ptr, ptr, ptr, ...) @expert_add_info_format(ptr noundef %1, ptr noundef %21, ptr noundef nonnull @ei_invalid_range, ptr noundef nonnull @.str.2242) #7
  br label %26

26:                                               ; preds = %24, %19
  %27 = load i32, ptr @hf_nfapi_nsrs, align 4
  %28 = call ptr @ptvcursor_add_ret_uint(ptr noundef %0, i32 noundef %27, i32 noundef 1, i32 noundef 0, ptr noundef nonnull %3) #7
  %29 = load i32, ptr %3, align 4
  %30 = icmp ugt i32 %29, 1
  br i1 %30, label %31, label %33

31:                                               ; preds = %26
  %32 = call ptr (ptr, ptr, ptr, ptr, ...) @expert_add_info_format(ptr noundef %1, ptr noundef %28, ptr noundef nonnull @ei_invalid_range, ptr noundef nonnull @.str.2243) #7
  br label %33

33:                                               ; preds = %31, %26
  ret void
}